target datalayout = "e-m:e-p270:32:32-p271:32:32-p272:64:64-i64:64-i128:128-f80:128-n8:16:32:64-S128"
target triple = "x86_64-pc-linux-gnu"

; Function Attrs: nounwind uwtable
define dso_local i32 @Curl_http_write_resp_hd(ptr noundef %0, ptr noundef %1, i64 noundef %2, i1 noundef zeroext %3) #0 {
  %5 = alloca ptr, align 8
  %6 = alloca ptr, align 8
  %7 = alloca i64, align 8
  %8 = alloca i8, align 1
  %9 = alloca i32, align 4
  %10 = alloca i64, align 8
  %11 = alloca i8, align 1
  store ptr %0, ptr %5, align 8, !tbaa !4
  store ptr %1, ptr %6, align 8, !tbaa !83
  store i64 %2, ptr %7, align 8, !tbaa !121
  %12 = zext i1 %3 to i8
  store i8 %12, ptr %8, align 1, !tbaa !84
  call void @llvm.lifetime.start.p0(i64 4, ptr %9) #6
  call void @llvm.lifetime.start.p0(i64 8, ptr %10) #6
  call void @llvm.lifetime.start.p0(i64 1, ptr %11) #6
  store i8 0, ptr %11, align 1, !tbaa !105
  %13 = load ptr, ptr %5, align 8, !tbaa !4
  %14 = load ptr, ptr %6, align 8, !tbaa !83
  %15 = load i64, ptr %7, align 8, !tbaa !121
  %16 = call i32 @http_rw_hd(ptr noundef %13, ptr noundef %14, i64 noundef %15, ptr noundef %11, i64 noundef 0, ptr noundef %10)
  store i32 %16, ptr %9, align 4, !tbaa !79
  %17 = load i32, ptr %9, align 4, !tbaa !79
  %18 = icmp ne i32 %17, 0
  br i1 %18, label %25, label %19

19:                                               ; preds = %4
  %20 = load i8, ptr %8, align 1, !tbaa !84, !range !113, !noundef !114
  %21 = trunc i8 %20 to i1
  br i1 %21, label %22, label %25

22:                                               ; preds = %19
  %23 = load ptr, ptr %5, align 8, !tbaa !4
  %24 = call i32 @Curl_client_write(ptr noundef %23, i32 noundef 129, ptr noundef %11, i64 noundef 0)
  store i32 %24, ptr %9, align 4, !tbaa !79
  br label %25

25:                                               ; preds = %22, %19, %4
  %26 = load i32, ptr %9, align 4, !tbaa !79
  call void @llvm.lifetime.end.p0(i64 1, ptr %11) #6
  call void @llvm.lifetime.end.p0(i64 8, ptr %10) #6
  call void @llvm.lifetime.end.p0(i64 4, ptr %9) #6
  ret i32 %26
}